; Function Attrs: null_pointer_is_valid sspstrong uwtable
define internal noalias noundef ptr @fragment_addresses_persistent_key(ptr noundef readonly captures(none) %0, i32 noundef %1, ptr readnone captures(none) %2) #2 {
  %4 = tail call noalias dereferenceable_or_null(56) ptr @g_slice_alloc(i64 noundef 56) #15
  %5 = getelementptr inbounds nuw i8, ptr %0, i64 208
  %6 = load i32, ptr %5, align 8
  %7 = getelementptr inbounds nuw i8, ptr %0, i64 212
  %8 = load i32, ptr %7, align 4
  %9 = getelementptr inbounds nuw i8, ptr %0, i64 216
  %10 = load ptr, ptr %9, align 8
  tail call void @llvm.memset.p0.i64(ptr noundef align 8 dereferenceable(24) %4, i8 0, i64 24, i1 false)
  store i32 %6, ptr %4, align 8
  %11 = icmp eq i32 %8, 0
  br i1 %11, label %copy_address.exit, label %12

12:                                               ; preds = %3
  %13 = sext i32 %8 to i64
  %14 = tail call ptr @wmem_memdup(ptr noundef null, ptr noundef %10, i64 noundef %13) #16
  %15 = getelementptr inbounds nuw i8, ptr %4, i64 16
  store ptr %14, ptr %15, align 8
  %16 = getelementptr inbounds nuw i8, ptr %4, i64 8
  store ptr %14, ptr %16, align 8
  %17 = getelementptr inbounds nuw i8, ptr %4, i64 4
  store i32 %8, ptr %17, align 4
  br label %copy_address.exit

copy_address.exit:                                ; preds = %3, %12
  %18 = getelementptr inbounds nuw i8, ptr %4, i64 24
  %19 = getelementptr inbounds nuw i8, ptr %0, i64 232
  %20 = load i32, ptr %19, align 8
  %21 = getelementptr inbounds nuw i8, ptr %0, i64 236
  %22 = load i32, ptr %21, align 4
  %23 = getelementptr inbounds nuw i8, ptr %0, i64 240
  %24 = load ptr, ptr %23, align 8
  tail call void @llvm.memset.p0.i64(ptr noundef nonnull align 8 dereferenceable(24) %18, i8 0, i64 24, i1 false)
  store i32 %20, ptr %18, align 8
  %25 = icmp eq i32 %22, 0
  br i1 %25, label %copy_address.exit6, label %26

26:                                               ; preds = %copy_address.exit
  %27 = sext i32 %22 to i64
  %28 = tail call ptr @wmem_memdup(ptr noundef null, ptr noundef %24, i64 noundef %27) #16
  %29 = getelementptr inbounds nuw i8, ptr %4, i64 40
  store ptr %28, ptr %29, align 8
  %30 = getelementptr inbounds nuw i8, ptr %4, i64 32
  store ptr %28, ptr %30, align 8
  %31 = getelementptr inbounds nuw i8, ptr %4, i64 28
  store i32 %22, ptr %31, align 4
  br label %copy_address.exit6

copy_address.exit6:                               ; preds = %copy_address.exit, %26
  %32 = getelementptr inbounds nuw i8, ptr %4, i64 48
  store i32 %1, ptr %32, align 8
  ret ptr %4
}